target datalayout = "e-m:e-p270:32:32-p271:32:32-p272:64:64-i64:64-i128:128-f80:128-n8:16:32:64-S128"
target triple = "x86_64-pc-linux-gnu"

@proto_tpkt_ptr = internal global ptr null, align 8

; Function Attrs: null_pointer_is_valid sspstrong uwtable
define i32 @is_tpkt(ptr noundef %0, i32 noundef %1) #0 {
  %3 = alloca i32, align 4
  %4 = alloca ptr, align 8
  %5 = alloca i32, align 4
  %6 = alloca i16, align 2
  %7 = alloca i32, align 4
  store ptr %0, ptr %4, align 8
  store i32 %1, ptr %5, align 4
  call void @llvm.lifetime.start.p0(i64 2, ptr %6) #6
  %8 = load ptr, ptr @proto_tpkt_ptr, align 8
  %9 = call zeroext i1 @proto_is_protocol_enabled(ptr noundef %8)
  br i1 %9, label %11, label %10

10:                                               ; preds = %2
  store i32 -1, ptr %3, align 4
  store i32 1, ptr %7, align 4
  br label %39

11:                                               ; preds = %2
  %12 = load ptr, ptr %4, align 8
  %13 = call i32 @tvb_captured_length(ptr noundef %12)
  %14 = icmp ult i32 %13, 4
  br i1 %14, label %15, label %16

15:                                               ; preds = %11
  store i32 -1, ptr %3, align 4
  store i32 1, ptr %7, align 4
  br label %39

16:                                               ; preds = %11
  %17 = load ptr, ptr %4, align 8
  %18 = call zeroext i8 @tvb_get_uint8(ptr noundef %17, i32 noundef 0)
  %19 = zext i8 %18 to i32
  %20 = icmp eq i32 %19, 3
  br i1 %20, label %21, label %26

21:                                               ; preds = %16
  %22 = load ptr, ptr %4, align 8
  %23 = call zeroext i8 @tvb_get_uint8(ptr noundef %22, i32 noundef 1)
  %24 = zext i8 %23 to i32
  %25 = icmp eq i32 %24, 0
  br i1 %25, label %27, label %26

26:                                               ; preds = %21, %16
  store i32 -1, ptr %3, align 4
  store i32 1, ptr %7, align 4
  br label %39

27:                                               ; preds = %21
  %28 = load ptr, ptr %4, align 8
  %29 = call zeroext i16 @tvb_get_ntohs(ptr noundef %28, i32 noundef 2)
  store i16 %29, ptr %6, align 2
  %30 = load i16, ptr %6, align 2
  %31 = zext i16 %30 to i32
  %32 = load i32, ptr %5, align 4
  %33 = add i32 4, %32
  %34 = icmp slt i32 %31, %33
  br i1 %34, label %35, label %36

35:                                               ; preds = %27
  store i32 -1, ptr %3, align 4
  store i32 1, ptr %7, align 4
  br label %39

36:                                               ; preds = %27
  %37 = load i16, ptr %6, align 2
  %38 = zext i16 %37 to i32
  store i32 %38, ptr %3, align 4
  store i32 1, ptr %7, align 4
  br label %39

39:                                               ; preds = %36, %35, %26, %15, %10
  call void @llvm.lifetime.end.p0(i64 2, ptr %6) #6
  %40 = load i32, ptr %3, align 4
  ret i32 %40
}