; Function Attrs: null_pointer_is_valid sspstrong uwtable
define range(i32 -1, 65536) i32 @is_tpkt(ptr noundef %0, i32 noundef %1) local_unnamed_addr #0 {
  %3 = load ptr, ptr @proto_tpkt_ptr, align 8
  %4 = tail call zeroext i1 @proto_is_protocol_enabled(ptr noundef %3)
  br i1 %4, label %5, label %19

5:                                                ; preds = %2
  %6 = tail call i32 @tvb_captured_length(ptr noundef %0)
  %7 = icmp ult i32 %6, 4
  br i1 %7, label %19, label %8

8:                                                ; preds = %5
  %9 = tail call zeroext i8 @tvb_get_uint8(ptr noundef %0, i32 noundef 0)
  %10 = icmp eq i8 %9, 3
  br i1 %10, label %11, label %19

11:                                               ; preds = %8
  %12 = tail call zeroext i8 @tvb_get_uint8(ptr noundef %0, i32 noundef 1)
  %13 = icmp eq i8 %12, 0
  br i1 %13, label %14, label %19

14:                                               ; preds = %11
  %15 = tail call zeroext i16 @tvb_get_ntohs(ptr noundef %0, i32 noundef 2)
  %16 = zext i16 %15 to i32
  %17 = add i32 %1, 4
  %18 = icmp sgt i32 %17, %16
  %. = select i1 %18, i32 -1, i32 %16
  br label %19

19:                                               ; preds = %14, %8, %11, %5, %2
  %.0 = phi i32 [ -1, %2 ], [ -1, %5 ], [ -1, %11 ], [ -1, %8 ], [ %., %14 ]
  ret i32 %.0
}